; Function Attrs: mustprogress uwtable
define hidden void @_ZN4cvc58internal13preprocessing17AssertionPipeline19addSubstitutionNodeENS0_12NodeTemplateILb1EEEPNS0_14ProofGeneratorENS0_7TrustIdE(ptr noundef nonnull align 8 dereferenceable(232) %0, ptr noundef readonly captures(none) %1, ptr noundef %2, i32 noundef %3) local_unnamed_addr #3 align 2 personality ptr @__gxx_personality_v0 {
  %5 = alloca %"struct.std::__detail::_AllocNode", align 8
  %6 = alloca %"class.cvc5::internal::NodeTemplate", align 8
  %7 = alloca i64, align 8
  %8 = getelementptr inbounds nuw i8, ptr %0, i64 32
  %9 = getelementptr inbounds nuw i8, ptr %0, i64 40
  %10 = load ptr, ptr %9, align 8, !tbaa !63
  %11 = load ptr, ptr %8, align 8, !tbaa !62
  %12 = ptrtoint ptr %10 to i64
  %13 = ptrtoint ptr %11 to i64
  %14 = sub i64 %12, %13
  %15 = ashr exact i64 %14, 3
  %16 = load ptr, ptr %1, align 8, !tbaa !11
  store ptr %16, ptr %6, align 8, !tbaa !11
  %17 = load i64, ptr %16, align 8
  %18 = lshr i64 %17, 40
  %19 = trunc nuw nsw i64 %18 to i32
  %20 = and i32 %19, 1048575
  %21 = icmp samesign ult i32 %20, 1048574
  br i1 %21, label %22, label %27, !prof !55

22:                                               ; preds = %4
  %23 = add i64 %17, 1099511627776
  %24 = and i64 %23, 1152920405095219200
  %25 = and i64 %17, -1152920405095219201
  %26 = or disjoint i64 %24, %25
  store i64 %26, ptr %16, align 8
  br label %_ZN4cvc58internal12NodeTemplateILb1EEC2ERKS2_.exit

27:                                               ; preds = %4
  %28 = icmp eq i32 %20, 1048574
  br i1 %28, label %29, label %_ZN4cvc58internal12NodeTemplateILb1EEC2ERKS2_.exit, !prof !54

29:                                               ; preds = %27
  %30 = or i64 %17, 1152920405095219200
  store i64 %30, ptr %16, align 8
  tail call void @_ZN4cvc58internal4expr9NodeValue20markRefCountMaxedOutEv(ptr noundef nonnull align 8 dereferenceable(24) %16)
  br label %_ZN4cvc58internal12NodeTemplateILb1EEC2ERKS2_.exit

_ZN4cvc58internal12NodeTemplateILb1EEC2ERKS2_.exit: ; preds = %22, %27, %29
  invoke void @_ZN4cvc58internal13preprocessing17AssertionPipeline9push_backENS0_12NodeTemplateILb1EEEbPNS0_14ProofGeneratorENS0_7TrustIdEb(ptr noundef nonnull align 8 dereferenceable(232) %0, ptr noundef nonnull %6, i1 noundef zeroext false, ptr noundef %2, i32 noundef %3, i1 noundef zeroext true)
          to label %31 unwind label %53

31:                                               ; preds = %_ZN4cvc58internal12NodeTemplateILb1EEC2ERKS2_.exit
  %32 = load ptr, ptr %6, align 8, !tbaa !11
  %33 = load i64, ptr %32, align 8
  %34 = and i64 %33, 1152920405095219200
  %.not.i.i = icmp eq i64 %34, 1152920405095219200
  br i1 %.not.i.i, label %_ZN4cvc58internal12NodeTemplateILb1EED2Ev.exit, label %35, !prof !54

35:                                               ; preds = %31
  %36 = add i64 %33, 1152920405095219200
  %37 = and i64 %36, 1152920405095219200
  %38 = and i64 %33, -1152920405095219201
  %39 = or disjoint i64 %37, %38
  store i64 %39, ptr %32, align 8
  %40 = icmp eq i64 %37, 0
  br i1 %40, label %41, label %_ZN4cvc58internal12NodeTemplateILb1EED2Ev.exit, !prof !54

41:                                               ; preds = %35
  invoke void @_ZN4cvc58internal4expr9NodeValue15markForDeletionEv(ptr noundef nonnull align 8 dereferenceable(24) %32)
          to label %_ZN4cvc58internal12NodeTemplateILb1EED2Ev.exit unwind label %42

42:                                               ; preds = %41
  %43 = landingpad { ptr, i32 }
          catch ptr null
  %44 = extractvalue { ptr, i32 } %43, 0
  call void @__clang_call_terminate(ptr %44) #25
  unreachable

_ZN4cvc58internal12NodeTemplateILb1EED2Ev.exit:   ; preds = %31, %35, %41
  call void @llvm.lifetime.start.p0(i64 8, ptr nonnull %7) #23
  store i64 %15, ptr %7, align 8, !tbaa !89
  %45 = load ptr, ptr %9, align 8, !tbaa !63
  %46 = load ptr, ptr %8, align 8, !tbaa !62
  %47 = ptrtoint ptr %45 to i64
  %48 = ptrtoint ptr %46 to i64
  %49 = sub i64 %47, %48
  %50 = ashr exact i64 %49, 3
  %51 = icmp ult i64 %15, %50
  br i1 %51, label %.lr.ph, label %._crit_edge

.lr.ph:                                           ; preds = %_ZN4cvc58internal12NodeTemplateILb1EED2Ev.exit
  %52 = getelementptr inbounds nuw i8, ptr %0, i64 128
  br label %55

._crit_edge:                                      ; preds = %55, %_ZN4cvc58internal12NodeTemplateILb1EED2Ev.exit
  call void @llvm.lifetime.end.p0(i64 8, ptr nonnull %7) #23
  ret void

53:                                               ; preds = %_ZN4cvc58internal12NodeTemplateILb1EEC2ERKS2_.exit
  %54 = landingpad { ptr, i32 }
          cleanup
  call void @_ZN4cvc58internal12NodeTemplateILb1EED2Ev(ptr noundef nonnull align 8 dereferenceable(8) %6) #23
  resume { ptr, i32 } %54

55:                                               ; preds = %.lr.ph, %55
  call void @llvm.lifetime.start.p0(i64 8, ptr nonnull %5) #23
  store ptr %52, ptr %5, align 8, !tbaa !94
  %56 = call { ptr, i8 } @_ZNSt10_HashtableImmSaImENSt8__detail9_IdentityESt8equal_toImESt4hashImENS1_18_Mod_range_hashingENS1_20_Default_ranged_hashENS1_20_Prime_rehash_policyENS1_17_Hashtable_traitsILb0ELb1ELb1EEEE16_M_insert_uniqueIRKmSF_NS1_10_AllocNodeISaINS1_10_Hash_nodeImLb0EEEEEEEESt4pairINS1_14_Node_iteratorImLb1ELb0EEEbEOT_OT0_RKT1_(ptr noundef nonnull align 8 dereferenceable(56) %52, ptr noundef nonnull align 8 dereferenceable(8) %7, ptr noundef nonnull align 8 dereferenceable(8) %7, ptr noundef nonnull align 8 dereferenceable(8) %5)
  call void @llvm.lifetime.end.p0(i64 8, ptr nonnull %5) #23
  %57 = load i64, ptr %7, align 8, !tbaa !89
  %58 = add i64 %57, 1
  store i64 %58, ptr %7, align 8, !tbaa !89
  %59 = icmp ult i64 %58, %50
  br i1 %59, label %55, label %._crit_edge, !llvm.loop !96
}